; Function Attrs: mustprogress nounwind uwtable
define internal void @_ZN19OpenColorIO_v2_4dev12GenericCacheINSt7__cxx1112basic_stringIcSt11char_traitsIcESaIcEEESt10shared_ptrINS_12_GLOBAL__N_115FileCacheResultEEED0Ev(ptr noundef nonnull align 8 dereferenceable(104) %this) unnamed_addr #6 align 2 personality ptr @__gxx_personality_v0 {
entry:
  store ptr getelementptr inbounds ({ [4 x ptr] }, ptr @_ZTVN19OpenColorIO_v2_4dev12GenericCacheINSt7__cxx1112basic_stringIcSt11char_traitsIcESaIcEEESt10shared_ptrINS_12_GLOBAL__N_115FileCacheResultEEEE, i64 0, i32 0, i64 2), ptr %this, align 8
  %0 = getelementptr inbounds i8, ptr %this, i64 72
  %this.val.i.i.i = load ptr, ptr %0, align 8
  invoke fastcc void @_ZNSt8_Rb_treeINSt7__cxx1112basic_stringIcSt11char_traitsIcESaIcEEESt4pairIKS5_St10shared_ptrIN19OpenColorIO_v2_4dev12_GLOBAL__N_115FileCacheResultEEESt10_Select1stISD_ESt4lessIS5_ESaISD_EE8_M_eraseEPSt13_Rb_tree_nodeISD_E(ptr noundef %this.val.i.i.i)
          to label %_ZN19OpenColorIO_v2_4dev12GenericCacheINSt7__cxx1112basic_stringIcSt11char_traitsIcESaIcEEESt10shared_ptrINS_12_GLOBAL__N_115FileCacheResultEEED2Ev.exit unwind label %terminate.lpad.i.i.i

terminate.lpad.i.i.i:                             ; preds = %entry
  %1 = landingpad { ptr, i32 }
          catch ptr null
  %2 = extractvalue { ptr, i32 } %1, 0
  tail call void @__clang_call_terminate(ptr %2) #30
  unreachable

_ZN19OpenColorIO_v2_4dev12GenericCacheINSt7__cxx1112basic_stringIcSt11char_traitsIcESaIcEEESt10shared_ptrINS_12_GLOBAL__N_115FileCacheResultEEED2Ev.exit: ; preds = %entry
  tail call void @_ZdlPv(ptr noundef nonnull %this) #31
  ret void
}